target datalayout = "e-m:e-p270:32:32-p271:32:32-p272:64:64-i64:64-i128:128-f80:128-n8:16:32:64-S128"
target triple = "x86_64-pc-linux-gnu"

%struct.mi_commit_mask_s = type { [16 x i64] }
%struct.mi_page_s = type { i32, i32, i8, i16, i16, %union.mi_page_flags_s, i8, ptr, i32, i32, ptr, i64, i64, ptr, ptr, [1 x i64] }
%union.mi_page_flags_s = type { i8 }
%struct.mi_segment_s = type { i64, i8, i8, i8, i8, i64, %struct.mi_commit_mask_s, %struct.mi_commit_mask_s, ptr, ptr, i64, i64, i64, i64, i64, i64, i32, i64, i64, [1024 x %struct.mi_page_s] }

; Function Attrs: nounwind uwtable
define hidden i64 @_mi_commit_mask_next_run(ptr noundef %0, ptr noundef %1) #0 {
  %3 = alloca i64, align 8
  %4 = alloca ptr, align 8
  %5 = alloca ptr, align 8
  %6 = alloca i64, align 8
  %7 = alloca i64, align 8
  %8 = alloca i64, align 8
  %9 = alloca i32, align 4
  %10 = alloca i64, align 8
  store ptr %0, ptr %4, align 8, !tbaa !3
  store ptr %1, ptr %5, align 8, !tbaa !13
  call void @llvm.lifetime.start.p0(i64 8, ptr %6) #7
  %11 = load ptr, ptr %5, align 8, !tbaa !13
  %12 = load i64, ptr %11, align 8, !tbaa !8
  %13 = udiv i64 %12, 64
  store i64 %13, ptr %6, align 8, !tbaa !8
  call void @llvm.lifetime.start.p0(i64 8, ptr %7) #7
  %14 = load ptr, ptr %5, align 8, !tbaa !13
  %15 = load i64, ptr %14, align 8, !tbaa !8
  %16 = urem i64 %15, 64
  store i64 %16, ptr %7, align 8, !tbaa !8
  call void @llvm.lifetime.start.p0(i64 8, ptr %8) #7
  store i64 0, ptr %8, align 8, !tbaa !8
  br label %17

17:                                               ; preds = %42, %2
  %18 = load i64, ptr %6, align 8, !tbaa !8
  %19 = icmp ult i64 %18, 16
  br i1 %19, label %20, label %45

20:                                               ; preds = %17
  %21 = load ptr, ptr %4, align 8, !tbaa !3
  %22 = getelementptr inbounds nuw %struct.mi_commit_mask_s, ptr %21, i32 0, i32 0
  %23 = load i64, ptr %6, align 8, !tbaa !8
  %24 = getelementptr inbounds nuw [16 x i64], ptr %22, i64 0, i64 %23
  %25 = load i64, ptr %24, align 8, !tbaa !8
  store i64 %25, ptr %8, align 8, !tbaa !8
  %26 = load i64, ptr %7, align 8, !tbaa !8
  %27 = load i64, ptr %8, align 8, !tbaa !8
  %28 = lshr i64 %27, %26
  store i64 %28, ptr %8, align 8, !tbaa !8
  %29 = load i64, ptr %8, align 8, !tbaa !8
  %30 = icmp ne i64 %29, 0
  br i1 %30, label %31, label %42

31:                                               ; preds = %20
  br label %32

32:                                               ; preds = %36, %31
  %33 = load i64, ptr %8, align 8, !tbaa !8
  %34 = and i64 %33, 1
  %35 = icmp eq i64 %34, 0
  br i1 %35, label %36, label %41

36:                                               ; preds = %32
  %37 = load i64, ptr %8, align 8, !tbaa !8
  %38 = lshr i64 %37, 1
  store i64 %38, ptr %8, align 8, !tbaa !8
  %39 = load i64, ptr %7, align 8, !tbaa !8
  %40 = add i64 %39, 1
  store i64 %40, ptr %7, align 8, !tbaa !8
  br label %32, !llvm.loop !15

41:                                               ; preds = %32
  br label %45

42:                                               ; preds = %20
  %43 = load i64, ptr %6, align 8, !tbaa !8
  %44 = add i64 %43, 1
  store i64 %44, ptr %6, align 8, !tbaa !8
  store i64 0, ptr %7, align 8, !tbaa !8
  br label %17, !llvm.loop !16

45:                                               ; preds = %41, %17
  %46 = load i64, ptr %6, align 8, !tbaa !8
  %47 = icmp uge i64 %46, 16
  br i1 %47, label %48, label %50

48:                                               ; preds = %45
  %49 = load ptr, ptr %5, align 8, !tbaa !13
  store i64 1024, ptr %49, align 8, !tbaa !8
  store i64 0, ptr %3, align 8
  store i32 1, ptr %9, align 4
  br label %92

50:                                               ; preds = %45
  call void @llvm.lifetime.start.p0(i64 8, ptr %10) #7
  store i64 0, ptr %10, align 8, !tbaa !8
  %51 = load i64, ptr %6, align 8, !tbaa !8
  %52 = mul i64 %51, 64
  %53 = load i64, ptr %7, align 8, !tbaa !8
  %54 = add i64 %52, %53
  %55 = load ptr, ptr %5, align 8, !tbaa !13
  store i64 %54, ptr %55, align 8, !tbaa !8
  br label %56

56:                                               ; preds = %86, %50
  br label %57

57:                                               ; preds = %62, %56
  %58 = load i64, ptr %10, align 8, !tbaa !8
  %59 = add i64 %58, 1
  store i64 %59, ptr %10, align 8, !tbaa !8
  %60 = load i64, ptr %8, align 8, !tbaa !8
  %61 = lshr i64 %60, 1
  store i64 %61, ptr %8, align 8, !tbaa !8
  br label %62

62:                                               ; preds = %57
  %63 = load i64, ptr %8, align 8, !tbaa !8
  %64 = and i64 %63, 1
  %65 = icmp eq i64 %64, 1
  br i1 %65, label %57, label %66, !llvm.loop !17

66:                                               ; preds = %62
  %67 = load ptr, ptr %5, align 8, !tbaa !13
  %68 = load i64, ptr %67, align 8, !tbaa !8
  %69 = load i64, ptr %10, align 8, !tbaa !8
  %70 = add i64 %68, %69
  %71 = urem i64 %70, 64
  %72 = icmp eq i64 %71, 0
  br i1 %72, label %73, label %85

73:                                               ; preds = %66
  %74 = load i64, ptr %6, align 8, !tbaa !8
  %75 = add i64 %74, 1
  store i64 %75, ptr %6, align 8, !tbaa !8
  %76 = load i64, ptr %6, align 8, !tbaa !8
  %77 = icmp uge i64 %76, 16
  br i1 %77, label %78, label %79

78:                                               ; preds = %73
  br label %90

79:                                               ; preds = %73
  %80 = load ptr, ptr %4, align 8, !tbaa !3
  %81 = getelementptr inbounds nuw %struct.mi_commit_mask_s, ptr %80, i32 0, i32 0
  %82 = load i64, ptr %6, align 8, !tbaa !8
  %83 = getelementptr inbounds nuw [16 x i64], ptr %81, i64 0, i64 %82
  %84 = load i64, ptr %83, align 8, !tbaa !8
  store i64 %84, ptr %8, align 8, !tbaa !8
  store i64 0, ptr %7, align 8, !tbaa !8
  br label %85

85:                                               ; preds = %79, %66
  br label %86

86:                                               ; preds = %85
  %87 = load i64, ptr %8, align 8, !tbaa !8
  %88 = and i64 %87, 1
  %89 = icmp eq i64 %88, 1
  br i1 %89, label %56, label %90, !llvm.loop !18

90:                                               ; preds = %86, %78
  %91 = load i64, ptr %10, align 8, !tbaa !8
  store i64 %91, ptr %3, align 8
  store i32 1, ptr %9, align 4
  call void @llvm.lifetime.end.p0(i64 8, ptr %10) #7
  br label %92

92:                                               ; preds = %90, %48
  call void @llvm.lifetime.end.p0(i64 8, ptr %8) #7
  call void @llvm.lifetime.end.p0(i64 8, ptr %7) #7
  call void @llvm.lifetime.end.p0(i64 8, ptr %6) #7
  %93 = load i64, ptr %3, align 8
  ret i64 %93
}

; Function Attrs: inlinehint nounwind uwtable
define internal void @mi_commit_mask_create_empty(ptr noundef %0) #2 {
  %2 = alloca ptr, align 8
  %3 = alloca i64, align 8
  store ptr %0, ptr %2, align 8, !tbaa !3
  call void @llvm.lifetime.start.p0(i64 8, ptr %3) #7
  store i64 0, ptr %3, align 8, !tbaa !8
  br label %4

4:                                                ; preds = %13, %1
  %5 = load i64, ptr %3, align 8, !tbaa !8
  %6 = icmp ult i64 %5, 16
  br i1 %6, label %8, label %7

7:                                                ; preds = %4
  call void @llvm.lifetime.end.p0(i64 8, ptr %3) #7
  br label %16

8:                                                ; preds = %4
  %9 = load ptr, ptr %2, align 8, !tbaa !3
  %10 = getelementptr inbounds nuw %struct.mi_commit_mask_s, ptr %9, i32 0, i32 0
  %11 = load i64, ptr %3, align 8, !tbaa !8
  %12 = getelementptr inbounds nuw [16 x i64], ptr %10, i64 0, i64 %11
  store i64 0, ptr %12, align 8, !tbaa !8
  br label %13

13:                                               ; preds = %8
  %14 = load i64, ptr %3, align 8, !tbaa !8
  %15 = add i64 %14, 1
  store i64 %15, ptr %3, align 8, !tbaa !8
  br label %4, !llvm.loop !100

16:                                               ; preds = %7
  ret void
}

; Function Attrs: inlinehint nounwind uwtable
define internal zeroext i1 @mi_commit_mask_is_empty(ptr noundef %0) #2 {
  %2 = alloca i1, align 1
  %3 = alloca ptr, align 8
  %4 = alloca i64, align 8
  %5 = alloca i32, align 4
  store ptr %0, ptr %3, align 8, !tbaa !3
  call void @llvm.lifetime.start.p0(i64 8, ptr %4) #7
  store i64 0, ptr %4, align 8, !tbaa !8
  br label %6

6:                                                ; preds = %19, %1
  %7 = load i64, ptr %4, align 8, !tbaa !8
  %8 = icmp ult i64 %7, 16
  br i1 %8, label %10, label %9

9:                                                ; preds = %6
  store i32 2, ptr %5, align 4
  br label %22

10:                                               ; preds = %6
  %11 = load ptr, ptr %3, align 8, !tbaa !3
  %12 = getelementptr inbounds nuw %struct.mi_commit_mask_s, ptr %11, i32 0, i32 0
  %13 = load i64, ptr %4, align 8, !tbaa !8
  %14 = getelementptr inbounds nuw [16 x i64], ptr %12, i64 0, i64 %13
  %15 = load i64, ptr %14, align 8, !tbaa !8
  %16 = icmp ne i64 %15, 0
  br i1 %16, label %17, label %18

17:                                               ; preds = %10
  store i1 false, ptr %2, align 1
  store i32 1, ptr %5, align 4
  br label %22

18:                                               ; preds = %10
  br label %19

19:                                               ; preds = %18
  %20 = load i64, ptr %4, align 8, !tbaa !8
  %21 = add i64 %20, 1
  store i64 %21, ptr %4, align 8, !tbaa !8
  br label %6, !llvm.loop !94

22:                                               ; preds = %17, %9
  call void @llvm.lifetime.end.p0(i64 8, ptr %4) #7
  %23 = load i32, ptr %5, align 4
  switch i32 %23, label %27 [
    i32 2, label %24
    i32 1, label %25
  ]

24:                                               ; preds = %22
  store i1 true, ptr %2, align 1
  br label %25

25:                                               ; preds = %24, %22
  %26 = load i1, ptr %2, align 1
  ret i1 %26

27:                                               ; preds = %22
  unreachable
}

; Function Attrs: nounwind uwtable
define internal void @mi_segment_delayed_decommit(ptr noundef %0, i1 noundef zeroext %1, ptr noundef %2) #0 {
  %4 = alloca ptr, align 8
  %5 = alloca i8, align 1
  %6 = alloca ptr, align 8
  %7 = alloca i64, align 8
  %8 = alloca i32, align 4
  %9 = alloca %struct.mi_commit_mask_s, align 8
  %10 = alloca i64, align 8
  %11 = alloca i64, align 8
  %12 = alloca ptr, align 8
  %13 = alloca i64, align 8
  store ptr %0, ptr %4, align 8, !tbaa !19
  %14 = zext i1 %1 to i8
  store i8 %14, ptr %5, align 1, !tbaa !33
  store ptr %2, ptr %6, align 8, !tbaa !65
  %15 = load ptr, ptr %4, align 8, !tbaa !19
  %16 = getelementptr inbounds nuw %struct.mi_segment_s, ptr %15, i32 0, i32 4
  %17 = load i8, ptr %16, align 1, !tbaa !66, !range !38, !noundef !39
  %18 = trunc i8 %17 to i1
  br i1 %18, label %19, label %23

19:                                               ; preds = %3
  %20 = load ptr, ptr %4, align 8, !tbaa !19
  %21 = getelementptr inbounds nuw %struct.mi_segment_s, ptr %20, i32 0, i32 6
  %22 = call zeroext i1 @mi_commit_mask_is_empty(ptr noundef %21)
  br i1 %22, label %23, label %24

23:                                               ; preds = %19, %3
  br label %67

24:                                               ; preds = %19
  call void @llvm.lifetime.start.p0(i64 8, ptr %7) #7
  %25 = call i64 @_mi_clock_now()
  store i64 %25, ptr %7, align 8, !tbaa !8
  %26 = load i8, ptr %5, align 1, !tbaa !33, !range !38, !noundef !39
  %27 = trunc i8 %26 to i1
  br i1 %27, label %35, label %28

28:                                               ; preds = %24
  %29 = load i64, ptr %7, align 8, !tbaa !8
  %30 = load ptr, ptr %4, align 8, !tbaa !19
  %31 = getelementptr inbounds nuw %struct.mi_segment_s, ptr %30, i32 0, i32 5
  %32 = load i64, ptr %31, align 8, !tbaa !67
  %33 = icmp slt i64 %29, %32
  br i1 %33, label %34, label %35

34:                                               ; preds = %28
  store i32 1, ptr %8, align 4
  br label %65

35:                                               ; preds = %28, %24
  call void @llvm.lifetime.start.p0(i64 128, ptr %9) #7
  %36 = load ptr, ptr %4, align 8, !tbaa !19
  %37 = getelementptr inbounds nuw %struct.mi_segment_s, ptr %36, i32 0, i32 6
  call void @llvm.memcpy.p0.p0.i64(ptr align 8 %9, ptr align 8 %37, i64 128, i1 false), !tbaa.struct !68
  %38 = load ptr, ptr %4, align 8, !tbaa !19
  %39 = getelementptr inbounds nuw %struct.mi_segment_s, ptr %38, i32 0, i32 5
  store i64 0, ptr %39, align 8, !tbaa !67
  %40 = load ptr, ptr %4, align 8, !tbaa !19
  %41 = getelementptr inbounds nuw %struct.mi_segment_s, ptr %40, i32 0, i32 6
  call void @mi_commit_mask_create_empty(ptr noundef %41)
  call void @llvm.lifetime.start.p0(i64 8, ptr %10) #7
  call void @llvm.lifetime.start.p0(i64 8, ptr %11) #7
  store i64 0, ptr %10, align 8, !tbaa !8
  br label %42

42:                                               ; preds = %60, %35
  %43 = call i64 @_mi_commit_mask_next_run(ptr noundef %9, ptr noundef %10)
  store i64 %43, ptr %11, align 8, !tbaa !8
  %44 = icmp ugt i64 %43, 0
  br i1 %44, label %45, label %64

45:                                               ; preds = %42
  %46 = load i64, ptr %11, align 8, !tbaa !8
  %47 = icmp ugt i64 %46, 0
  br i1 %47, label %48, label %60

48:                                               ; preds = %45
  call void @llvm.lifetime.start.p0(i64 8, ptr %12) #7
  %49 = load ptr, ptr %4, align 8, !tbaa !19
  %50 = load i64, ptr %10, align 8, !tbaa !8
  %51 = mul i64 %50, 65536
  %52 = getelementptr inbounds nuw i8, ptr %49, i64 %51
  store ptr %52, ptr %12, align 8, !tbaa !28
  call void @llvm.lifetime.start.p0(i64 8, ptr %13) #7
  %53 = load i64, ptr %11, align 8, !tbaa !8
  %54 = mul i64 %53, 65536
  store i64 %54, ptr %13, align 8, !tbaa !8
  %55 = load ptr, ptr %4, align 8, !tbaa !19
  %56 = load ptr, ptr %12, align 8, !tbaa !28
  %57 = load i64, ptr %13, align 8, !tbaa !8
  %58 = load ptr, ptr %6, align 8, !tbaa !65
  %59 = call zeroext i1 @mi_segment_commitx(ptr noundef %55, i1 noundef zeroext false, ptr noundef %56, i64 noundef %57, ptr noundef %58)
  call void @llvm.lifetime.end.p0(i64 8, ptr %13) #7
  call void @llvm.lifetime.end.p0(i64 8, ptr %12) #7
  br label %60

60:                                               ; preds = %48, %45
  %61 = load i64, ptr %11, align 8, !tbaa !8
  %62 = load i64, ptr %10, align 8, !tbaa !8
  %63 = add i64 %62, %61
  store i64 %63, ptr %10, align 8, !tbaa !8
  br label %42, !llvm.loop !70

64:                                               ; preds = %42
  call void @llvm.lifetime.end.p0(i64 8, ptr %11) #7
  call void @llvm.lifetime.end.p0(i64 8, ptr %10) #7
  call void @llvm.lifetime.end.p0(i64 128, ptr %9) #7
  store i32 0, ptr %8, align 4
  br label %65

65:                                               ; preds = %64, %34
  call void @llvm.lifetime.end.p0(i64 8, ptr %7) #7
  %66 = load i32, ptr %8, align 4
  switch i32 %66, label %68 [
    i32 0, label %67
    i32 1, label %67
  ]

67:                                               ; preds = %23, %65, %65
  ret void

68:                                               ; preds = %65
  unreachable
}