; Function Attrs: nounwind uwtable
define internal fastcc void @mi_segment_delayed_decommit(ptr noundef %0, i1 noundef zeroext %1, ptr noundef %2) unnamed_addr #5 {
  %4 = alloca %struct.mi_commit_mask_s, align 8
  %5 = getelementptr inbounds nuw i8, ptr %0, i64 11
  %6 = load i8, ptr %5, align 1, !tbaa !71, !range !35, !noundef !36
  %7 = trunc nuw i8 %6 to i1
  br i1 %7, label %8, label %61

8:                                                ; preds = %3
  %9 = getelementptr inbounds nuw i8, ptr %0, i64 24
  br label %10

10:                                               ; preds = %10, %8
  %.057.i = phi i64 [ 0, %8 ], [ %13, %10 ]
  %11 = getelementptr inbounds nuw [16 x i64], ptr %9, i64 0, i64 %.057.i
  %12 = load i64, ptr %11, align 8, !tbaa !3
  %.not.i = icmp eq i64 %12, 0
  %13 = add nuw nsw i64 %.057.i, 1
  %exitcond.i = icmp ne i64 %13, 16
  %or.cond.not.i = select i1 %.not.i, i1 %exitcond.i, i1 false
  br i1 %or.cond.not.i, label %10, label %mi_commit_mask_is_empty.exit, !llvm.loop !72

mi_commit_mask_is_empty.exit:                     ; preds = %10
  br i1 %.not.i, label %61, label %14

14:                                               ; preds = %mi_commit_mask_is_empty.exit
  %15 = tail call i64 @_mi_clock_now() #9
  br i1 %1, label %20, label %16

16:                                               ; preds = %14
  %17 = getelementptr inbounds nuw i8, ptr %0, i64 16
  %18 = load i64, ptr %17, align 8, !tbaa !73
  %19 = icmp slt i64 %15, %18
  br i1 %19, label %61, label %20

20:                                               ; preds = %16, %14
  call void @llvm.lifetime.start.p0(i64 128, ptr nonnull %4) #9
  call void @llvm.memcpy.p0.p0.i64(ptr noundef nonnull align 8 dereferenceable(128) %4, ptr noundef nonnull align 8 dereferenceable(128) %9, i64 128, i1 false), !tbaa.struct !74
  %21 = getelementptr inbounds nuw i8, ptr %0, i64 16
  tail call void @llvm.memset.p0.i64(ptr noundef nonnull align 8 dereferenceable(136) %21, i8 0, i64 136, i1 false)
  br label %.lr.ph.preheader.i

.lr.ph.preheader.i:                               ; preds = %20, %54
  %storemerge29 = phi i64 [ 0, %20 ], [ %59, %54 ]
  %22 = and i64 %storemerge29, 63
  %23 = lshr i64 %storemerge29, 6
  br label %.lr.ph.i

.lr.ph.i:                                         ; preds = %33, %.lr.ph.preheader.i
  %.03049.i = phi i64 [ 0, %33 ], [ %22, %.lr.ph.preheader.i ]
  %.03348.i = phi i64 [ %34, %33 ], [ %23, %.lr.ph.preheader.i ]
  %24 = getelementptr inbounds nuw [16 x i64], ptr %4, i64 0, i64 %.03348.i
  %25 = load i64, ptr %24, align 8, !tbaa !3
  %26 = lshr i64 %25, %.03049.i
  %.not.i15 = icmp eq i64 %26, 0
  br i1 %.not.i15, label %33, label %.preheader.i

.preheader.i:                                     ; preds = %.lr.ph.i
  %27 = and i64 %26, 1
  %28 = icmp eq i64 %27, 0
  br i1 %28, label %.lr.ph52.i, label %._crit_edge.i

.lr.ph52.i:                                       ; preds = %.preheader.i, %.lr.ph52.i
  %.251.i = phi i64 [ %29, %.lr.ph52.i ], [ %26, %.preheader.i ]
  %.23250.i = phi i64 [ %30, %.lr.ph52.i ], [ %.03049.i, %.preheader.i ]
  %29 = lshr exact i64 %.251.i, 1
  %30 = add i64 %.23250.i, 1
  %31 = and i64 %.251.i, 2
  %32 = icmp eq i64 %31, 0
  br i1 %32, label %.lr.ph52.i, label %._crit_edge.i, !llvm.loop !10

33:                                               ; preds = %.lr.ph.i
  %34 = add nuw nsw i64 %.03348.i, 1
  %exitcond.not.i = icmp eq i64 %34, 16
  br i1 %exitcond.not.i, label %_mi_commit_mask_next_run.exit.thread, label %.lr.ph.i, !llvm.loop !11

._crit_edge.i:                                    ; preds = %.lr.ph52.i, %.preheader.i
  %.232.lcssa.i = phi i64 [ %.03049.i, %.preheader.i ], [ %30, %.lr.ph52.i ]
  %.2.lcssa.i = phi i64 [ %26, %.preheader.i ], [ %29, %.lr.ph52.i ]
  %35 = shl nuw nsw i64 %.03348.i, 6
  %36 = add i64 %.232.lcssa.i, %35
  br label %37

37:                                               ; preds = %52, %._crit_edge.i
  %.134.i = phi i64 [ %.03348.i, %._crit_edge.i ], [ %.235.i, %52 ]
  %.3.i = phi i64 [ %.2.lcssa.i, %._crit_edge.i ], [ %.5.i, %52 ]
  %.0.i = phi i64 [ 0, %._crit_edge.i ], [ %39, %52 ]
  br label %38

38:                                               ; preds = %38, %37
  %.4.i = phi i64 [ %.3.i, %37 ], [ %40, %38 ]
  %.1.i = phi i64 [ %.0.i, %37 ], [ %39, %38 ]
  %39 = add i64 %.1.i, 1
  %40 = lshr i64 %.4.i, 1
  %41 = and i64 %.4.i, 2
  %.not40.i = icmp eq i64 %41, 0
  br i1 %.not40.i, label %42, label %38, !llvm.loop !12

42:                                               ; preds = %38
  %43 = add i64 %39, %.232.lcssa.i
  %44 = and i64 %43, 63
  %45 = icmp eq i64 %44, 0
  br i1 %45, label %46, label %52

46:                                               ; preds = %42
  %47 = icmp ugt i64 %.134.i, 14
  br i1 %47, label %_mi_commit_mask_next_run.exit, label %48

48:                                               ; preds = %46
  %49 = add nuw nsw i64 %.134.i, 1
  %50 = getelementptr inbounds nuw [16 x i64], ptr %4, i64 0, i64 %49
  %51 = load i64, ptr %50, align 8, !tbaa !3
  br label %52

52:                                               ; preds = %48, %42
  %.235.i = phi i64 [ %49, %48 ], [ %.134.i, %42 ]
  %.5.i = phi i64 [ %51, %48 ], [ %40, %42 ]
  %53 = and i64 %.5.i, 1
  %.not41.i = icmp eq i64 %53, 0
  br i1 %.not41.i, label %_mi_commit_mask_next_run.exit, label %37, !llvm.loop !13

_mi_commit_mask_next_run.exit:                    ; preds = %46, %52
  %.not = icmp eq i64 %39, 0
  br i1 %.not, label %_mi_commit_mask_next_run.exit.thread, label %54

54:                                               ; preds = %_mi_commit_mask_next_run.exit
  %55 = shl i64 %36, 16
  %56 = getelementptr inbounds nuw i8, ptr %0, i64 %55
  %57 = shl i64 %39, 16
  %58 = tail call fastcc zeroext i1 @mi_segment_commitx(ptr noundef %0, i1 noundef zeroext false, ptr noundef %56, i64 noundef %57, ptr noundef %2)
  %59 = add i64 %39, %36
  %60 = icmp ult i64 %59, 1024
  br i1 %60, label %.lr.ph.preheader.i, label %_mi_commit_mask_next_run.exit.thread, !llvm.loop !76

_mi_commit_mask_next_run.exit.thread:             ; preds = %54, %_mi_commit_mask_next_run.exit, %33
  call void @llvm.lifetime.end.p0(i64 128, ptr nonnull %4) #9
  br label %61

61:                                               ; preds = %_mi_commit_mask_next_run.exit.thread, %16, %3, %mi_commit_mask_is_empty.exit
  ret void
}